target datalayout = "e-m:e-p270:32:32-p271:32:32-p272:64:64-i64:64-i128:128-f80:128-n8:16:32:64-S128"
target triple = "x86_64-unknown-linux-gnu"

%"struct.(anonymous namespace)::AntMetaDataRecord" = type { %"class.eastl::vector.37" }
%"class.eastl::vector.37" = type { %"struct.eastl::VectorBase.38" }
%"struct.eastl::VectorBase.38" = type { ptr, ptr, %"class.eastl::compressed_pair.39" }
%"class.eastl::compressed_pair.39" = type { %"class.eastl::compressed_pair_imp.40" }
%"class.eastl::compressed_pair_imp.40" = type { ptr }
%"struct.(anonymous namespace)::ScenarioRefEntry" = type { ptr, %"class.eastl::vector.157" }
%"class.eastl::vector.157" = type { %"struct.eastl::VectorBase.158" }
%"struct.eastl::VectorBase.158" = type { ptr, ptr, %"class.eastl::compressed_pair.159" }
%"class.eastl::compressed_pair.159" = type { %"class.eastl::compressed_pair_imp.160" }
%"class.eastl::compressed_pair_imp.160" = type { ptr }

; Function Attrs: mustprogress nounwind uwtable
define internal noundef nonnull align 8 dereferenceable(8) ptr @_ZN5eastl19compressed_pair_impIPN12_GLOBAL__N_116ScenarioRefEntry8RowEntryENS_9allocatorELi2EE5firstEv(ptr noundef nonnull align 8 dereferenceable(8) %this) #1 align 2 {
entry:
  %this.addr = alloca ptr, align 8
  store ptr %this, ptr %this.addr, align 8
  %this1 = load ptr, ptr %this.addr, align 8
  %mFirst = getelementptr inbounds %"class.eastl::compressed_pair_imp.160", ptr %this1, i32 0, i32 0
  ret ptr %mFirst
}

; Function Attrs: mustprogress nounwind uwtable
define internal noundef nonnull align 1 dereferenceable(1) ptr @_ZN5eastl19compressed_pair_impIPN12_GLOBAL__N_116ScenarioRefEntry8RowEntryENS_9allocatorELi2EE6secondEv(ptr noundef nonnull align 8 dereferenceable(8) %this) #1 align 2 {
entry:
  %this.addr = alloca ptr, align 8
  store ptr %this, ptr %this.addr, align 8
  %this1 = load ptr, ptr %this.addr, align 8
  ret ptr %this1
}

; Function Attrs: mustprogress uwtable
define internal noundef nonnull align 8 dereferenceable(8) ptr @_ZN5eastl15compressed_pairIPN12_GLOBAL__N_116ScenarioRefEntry8RowEntryENS_9allocatorEE5firstEv(ptr noundef nonnull align 8 dereferenceable(8) %this) #0 align 2 {
entry:
  %this.addr = alloca ptr, align 8
  store ptr %this, ptr %this.addr, align 8
  %this1 = load ptr, ptr %this.addr, align 8
  %call = call noundef nonnull align 8 dereferenceable(8) ptr @_ZN5eastl19compressed_pair_impIPN12_GLOBAL__N_116ScenarioRefEntry8RowEntryENS_9allocatorELi2EE5firstEv(ptr noundef nonnull align 8 dereferenceable(8) %this1)
  ret ptr %call
}

; Function Attrs: mustprogress uwtable
define internal noundef nonnull align 1 dereferenceable(1) ptr @_ZN5eastl15compressed_pairIPN12_GLOBAL__N_116ScenarioRefEntry8RowEntryENS_9allocatorEE6secondEv(ptr noundef nonnull align 8 dereferenceable(8) %this) #0 align 2 {
entry:
  %this.addr = alloca ptr, align 8
  store ptr %this, ptr %this.addr, align 8
  %this1 = load ptr, ptr %this.addr, align 8
  %call = call noundef nonnull align 1 dereferenceable(1) ptr @_ZN5eastl19compressed_pair_impIPN12_GLOBAL__N_116ScenarioRefEntry8RowEntryENS_9allocatorELi2EE6secondEv(ptr noundef nonnull align 8 dereferenceable(8) %this1)
  ret ptr %call
}

; Function Attrs: mustprogress nounwind uwtable
define internal noundef nonnull align 8 dereferenceable(8) ptr @_ZN5eastl10VectorBaseIN12_GLOBAL__N_116ScenarioRefEntry8RowEntryENS_9allocatorEE19internalCapacityPtrEv(ptr noundef nonnull align 8 dereferenceable(24) %this) #1 align 2 personality ptr @__gxx_personality_v0 {
entry:
  %this.addr = alloca ptr, align 8
  store ptr %this, ptr %this.addr, align 8
  %this1 = load ptr, ptr %this.addr, align 8
  %mCapacityAllocator = getelementptr inbounds %"struct.eastl::VectorBase.158", ptr %this1, i32 0, i32 2
  %call = invoke noundef nonnull align 8 dereferenceable(8) ptr @_ZN5eastl15compressed_pairIPN12_GLOBAL__N_116ScenarioRefEntry8RowEntryENS_9allocatorEE5firstEv(ptr noundef nonnull align 8 dereferenceable(8) %mCapacityAllocator)
          to label %invoke.cont unwind label %terminate.lpad

invoke.cont:                                      ; preds = %entry
  ret ptr %call

terminate.lpad:                                   ; preds = %entry
  %0 = landingpad { ptr, i32 }
          catch ptr null
  %1 = extractvalue { ptr, i32 } %0, 0
  call void @__clang_call_terminate(ptr %1) #12
  unreachable
}

; Function Attrs: mustprogress nounwind uwtable
define internal noundef nonnull align 1 dereferenceable(1) ptr @_ZN5eastl10VectorBaseIN12_GLOBAL__N_116ScenarioRefEntry8RowEntryENS_9allocatorEE17internalAllocatorEv(ptr noundef nonnull align 8 dereferenceable(24) %this) #1 align 2 personality ptr @__gxx_personality_v0 {
entry:
  %this.addr = alloca ptr, align 8
  store ptr %this, ptr %this.addr, align 8
  %this1 = load ptr, ptr %this.addr, align 8
  %mCapacityAllocator = getelementptr inbounds %"struct.eastl::VectorBase.158", ptr %this1, i32 0, i32 2
  %call = invoke noundef nonnull align 1 dereferenceable(1) ptr @_ZN5eastl15compressed_pairIPN12_GLOBAL__N_116ScenarioRefEntry8RowEntryENS_9allocatorEE6secondEv(ptr noundef nonnull align 8 dereferenceable(8) %mCapacityAllocator)
          to label %invoke.cont unwind label %terminate.lpad

invoke.cont:                                      ; preds = %entry
  ret ptr %call

terminate.lpad:                                   ; preds = %entry
  %0 = landingpad { ptr, i32 }
          catch ptr null
  %1 = extractvalue { ptr, i32 } %0, 0
  call void @__clang_call_terminate(ptr %1) #12
  unreachable
}

; Function Attrs: mustprogress nounwind uwtable
define internal void @_ZN5eastl13destruct_implIPN12_GLOBAL__N_116ScenarioRefEntry8RowEntryEEEvT_S5_NS_17integral_constantIbLb1EEE(ptr noundef %0, ptr noundef %1) #1 {
entry:
  %.addr = alloca ptr, align 8
  %.addr1 = alloca ptr, align 8
  store ptr %0, ptr %.addr, align 8
  store ptr %1, ptr %.addr1, align 8
  ret void
}

; Function Attrs: mustprogress nounwind uwtable
define internal void @_ZN5eastl10VectorBaseIN12_GLOBAL__N_116ScenarioRefEntry8RowEntryENS_9allocatorEED2Ev(ptr noundef nonnull align 8 dereferenceable(24) %this) unnamed_addr #1 align 2 personality ptr @__gxx_personality_v0 {
entry:
  %this.addr = alloca ptr, align 8
  store ptr %this, ptr %this.addr, align 8
  %this1 = load ptr, ptr %this.addr, align 8
  %mpBegin = getelementptr inbounds %"struct.eastl::VectorBase.158", ptr %this1, i32 0, i32 0
  %0 = load ptr, ptr %mpBegin, align 8
  %tobool = icmp ne ptr %0, null
  br i1 %tobool, label %if.then, label %if.end

if.then:                                          ; preds = %entry
  %call = call noundef nonnull align 1 dereferenceable(1) ptr @_ZN5eastl10VectorBaseIN12_GLOBAL__N_116ScenarioRefEntry8RowEntryENS_9allocatorEE17internalAllocatorEv(ptr noundef nonnull align 8 dereferenceable(24) %this1) #13
  %mpBegin2 = getelementptr inbounds %"struct.eastl::VectorBase.158", ptr %this1, i32 0, i32 0
  %1 = load ptr, ptr %mpBegin2, align 8
  %call3 = call noundef nonnull align 8 dereferenceable(8) ptr @_ZN5eastl10VectorBaseIN12_GLOBAL__N_116ScenarioRefEntry8RowEntryENS_9allocatorEE19internalCapacityPtrEv(ptr noundef nonnull align 8 dereferenceable(24) %this1) #13
  %2 = load ptr, ptr %call3, align 8
  %mpBegin4 = getelementptr inbounds %"struct.eastl::VectorBase.158", ptr %this1, i32 0, i32 0
  %3 = load ptr, ptr %mpBegin4, align 8
  %sub.ptr.lhs.cast = ptrtoint ptr %2 to i64
  %sub.ptr.rhs.cast = ptrtoint ptr %3 to i64
  %sub.ptr.sub = sub i64 %sub.ptr.lhs.cast, %sub.ptr.rhs.cast
  %sub.ptr.div = sdiv exact i64 %sub.ptr.sub, 24
  %mul = mul i64 %sub.ptr.div, 24
  invoke void @_ZN5eastl9allocator10deallocateEPvm(ptr noundef nonnull align 1 dereferenceable(1) %call, ptr noundef %1, i64 noundef %mul)
          to label %invoke.cont unwind label %terminate.lpad

invoke.cont:                                      ; preds = %if.then
  br label %if.end

if.end:                                           ; preds = %invoke.cont, %entry
  ret void

terminate.lpad:                                   ; preds = %if.then
  %4 = landingpad { ptr, i32 }
          catch ptr null
  %5 = extractvalue { ptr, i32 } %4, 0
  call void @__clang_call_terminate(ptr %5) #12
  unreachable
}

; Function Attrs: mustprogress uwtable
define internal void @_ZN5eastl8destructIPN12_GLOBAL__N_116ScenarioRefEntry8RowEntryEEEvT_S5_(ptr noundef %first, ptr noundef %last) #0 {
entry:
  %first.addr = alloca ptr, align 8
  %last.addr = alloca ptr, align 8
  store ptr %first, ptr %first.addr, align 8
  store ptr %last, ptr %last.addr, align 8
  %0 = load ptr, ptr %first.addr, align 8
  %1 = load ptr, ptr %last.addr, align 8
  call void @_ZN5eastl13destruct_implIPN12_GLOBAL__N_116ScenarioRefEntry8RowEntryEEEvT_S5_NS_17integral_constantIbLb1EEE(ptr noundef %0, ptr noundef %1)
  ret void
}

; Function Attrs: mustprogress nounwind uwtable
define internal noundef nonnull align 8 dereferenceable(8) ptr @_ZN5eastl19compressed_pair_impIPN12_GLOBAL__N_116ScenarioRefEntryENS_9allocatorELi2EE5firstEv(ptr noundef nonnull align 8 dereferenceable(8) %this) #1 align 2 {
entry:
  %this.addr = alloca ptr, align 8
  store ptr %this, ptr %this.addr, align 8
  %this1 = load ptr, ptr %this.addr, align 8
  %mFirst = getelementptr inbounds %"class.eastl::compressed_pair_imp.40", ptr %this1, i32 0, i32 0
  ret ptr %mFirst
}

; Function Attrs: mustprogress nounwind uwtable
define internal noundef nonnull align 1 dereferenceable(1) ptr @_ZN5eastl19compressed_pair_impIPN12_GLOBAL__N_116ScenarioRefEntryENS_9allocatorELi2EE6secondEv(ptr noundef nonnull align 8 dereferenceable(8) %this) #1 align 2 {
entry:
  %this.addr = alloca ptr, align 8
  store ptr %this, ptr %this.addr, align 8
  %this1 = load ptr, ptr %this.addr, align 8
  ret ptr %this1
}

; Function Attrs: mustprogress nounwind uwtable
define internal void @_ZN5eastl6vectorIN12_GLOBAL__N_116ScenarioRefEntry8RowEntryENS_9allocatorEED2Ev(ptr noundef nonnull align 8 dereferenceable(24) %this) unnamed_addr #1 align 2 personality ptr @__gxx_personality_v0 {
entry:
  %this.addr = alloca ptr, align 8
  store ptr %this, ptr %this.addr, align 8
  %this1 = load ptr, ptr %this.addr, align 8
  %mpBegin = getelementptr inbounds %"struct.eastl::VectorBase.158", ptr %this1, i32 0, i32 0
  %0 = load ptr, ptr %mpBegin, align 8
  %mpEnd = getelementptr inbounds %"struct.eastl::VectorBase.158", ptr %this1, i32 0, i32 1
  %1 = load ptr, ptr %mpEnd, align 8
  invoke void @_ZN5eastl8destructIPN12_GLOBAL__N_116ScenarioRefEntry8RowEntryEEEvT_S5_(ptr noundef %0, ptr noundef %1)
          to label %invoke.cont unwind label %terminate.lpad

invoke.cont:                                      ; preds = %entry
  call void @_ZN5eastl10VectorBaseIN12_GLOBAL__N_116ScenarioRefEntry8RowEntryENS_9allocatorEED2Ev(ptr noundef nonnull align 8 dereferenceable(24) %this1) #13
  ret void

terminate.lpad:                                   ; preds = %entry
  %2 = landingpad { ptr, i32 }
          catch ptr null
  %3 = extractvalue { ptr, i32 } %2, 0
  call void @__clang_call_terminate(ptr %3) #12
  unreachable
}

; Function Attrs: mustprogress uwtable
define internal noundef nonnull align 8 dereferenceable(8) ptr @_ZN5eastl15compressed_pairIPN12_GLOBAL__N_116ScenarioRefEntryENS_9allocatorEE5firstEv(ptr noundef nonnull align 8 dereferenceable(8) %this) #0 align 2 {
entry:
  %this.addr = alloca ptr, align 8
  store ptr %this, ptr %this.addr, align 8
  %this1 = load ptr, ptr %this.addr, align 8
  %call = call noundef nonnull align 8 dereferenceable(8) ptr @_ZN5eastl19compressed_pair_impIPN12_GLOBAL__N_116ScenarioRefEntryENS_9allocatorELi2EE5firstEv(ptr noundef nonnull align 8 dereferenceable(8) %this1)
  ret ptr %call
}

; Function Attrs: mustprogress uwtable
define internal noundef nonnull align 1 dereferenceable(1) ptr @_ZN5eastl15compressed_pairIPN12_GLOBAL__N_116ScenarioRefEntryENS_9allocatorEE6secondEv(ptr noundef nonnull align 8 dereferenceable(8) %this) #0 align 2 {
entry:
  %this.addr = alloca ptr, align 8
  store ptr %this, ptr %this.addr, align 8
  %this1 = load ptr, ptr %this.addr, align 8
  %call = call noundef nonnull align 1 dereferenceable(1) ptr @_ZN5eastl19compressed_pair_impIPN12_GLOBAL__N_116ScenarioRefEntryENS_9allocatorELi2EE6secondEv(ptr noundef nonnull align 8 dereferenceable(8) %this1)
  ret ptr %call
}

; Function Attrs: mustprogress nounwind uwtable
define internal void @_ZN12_GLOBAL__N_116ScenarioRefEntryD2Ev(ptr noundef nonnull align 8 dereferenceable(32) %this) unnamed_addr #1 align 2 {
entry:
  %this.addr = alloca ptr, align 8
  store ptr %this, ptr %this.addr, align 8
  %this1 = load ptr, ptr %this.addr, align 8
  %Rows = getelementptr inbounds %"struct.(anonymous namespace)::ScenarioRefEntry", ptr %this1, i32 0, i32 1
  call void @_ZN5eastl6vectorIN12_GLOBAL__N_116ScenarioRefEntry8RowEntryENS_9allocatorEED2Ev(ptr noundef nonnull align 8 dereferenceable(24) %Rows) #13
  ret void
}

; Function Attrs: mustprogress nounwind uwtable
define linkonce_odr dso_local void @_ZN5eastl9allocator10deallocateEPvm(ptr noundef nonnull align 1 dereferenceable(1) %this, ptr noundef %p, i64 noundef %0) #1 comdat align 2 {
entry:
  %this.addr = alloca ptr, align 8
  %p.addr = alloca ptr, align 8
  %.addr = alloca i64, align 8
  store ptr %this, ptr %this.addr, align 8
  store ptr %p, ptr %p.addr, align 8
  store i64 %0, ptr %.addr, align 8
  %1 = load ptr, ptr %p.addr, align 8
  %isnull = icmp eq ptr %1, null
  br i1 %isnull, label %delete.end, label %delete.notnull

delete.notnull:                                   ; preds = %entry
  call void @_ZdaPv(ptr noundef %1) #15
  br label %delete.end

delete.end:                                       ; preds = %delete.notnull, %entry
  ret void
}

; Function Attrs: mustprogress nounwind uwtable
define internal noundef nonnull align 8 dereferenceable(8) ptr @_ZN5eastl10VectorBaseIN12_GLOBAL__N_116ScenarioRefEntryENS_9allocatorEE19internalCapacityPtrEv(ptr noundef nonnull align 8 dereferenceable(24) %this) #1 align 2 personality ptr @__gxx_personality_v0 {
entry:
  %this.addr = alloca ptr, align 8
  store ptr %this, ptr %this.addr, align 8
  %this1 = load ptr, ptr %this.addr, align 8
  %mCapacityAllocator = getelementptr inbounds %"struct.eastl::VectorBase.38", ptr %this1, i32 0, i32 2
  %call = invoke noundef nonnull align 8 dereferenceable(8) ptr @_ZN5eastl15compressed_pairIPN12_GLOBAL__N_116ScenarioRefEntryENS_9allocatorEE5firstEv(ptr noundef nonnull align 8 dereferenceable(8) %mCapacityAllocator)
          to label %invoke.cont unwind label %terminate.lpad

invoke.cont:                                      ; preds = %entry
  ret ptr %call

terminate.lpad:                                   ; preds = %entry
  %0 = landingpad { ptr, i32 }
          catch ptr null
  %1 = extractvalue { ptr, i32 } %0, 0
  call void @__clang_call_terminate(ptr %1) #12
  unreachable
}

; Function Attrs: mustprogress nounwind uwtable
define internal noundef nonnull align 1 dereferenceable(1) ptr @_ZN5eastl10VectorBaseIN12_GLOBAL__N_116ScenarioRefEntryENS_9allocatorEE17internalAllocatorEv(ptr noundef nonnull align 8 dereferenceable(24) %this) #1 align 2 personality ptr @__gxx_personality_v0 {
entry:
  %this.addr = alloca ptr, align 8
  store ptr %this, ptr %this.addr, align 8
  %this1 = load ptr, ptr %this.addr, align 8
  %mCapacityAllocator = getelementptr inbounds %"struct.eastl::VectorBase.38", ptr %this1, i32 0, i32 2
  %call = invoke noundef nonnull align 1 dereferenceable(1) ptr @_ZN5eastl15compressed_pairIPN12_GLOBAL__N_116ScenarioRefEntryENS_9allocatorEE6secondEv(ptr noundef nonnull align 8 dereferenceable(8) %mCapacityAllocator)
          to label %invoke.cont unwind label %terminate.lpad

invoke.cont:                                      ; preds = %entry
  ret ptr %call

terminate.lpad:                                   ; preds = %entry
  %0 = landingpad { ptr, i32 }
          catch ptr null
  %1 = extractvalue { ptr, i32 } %0, 0
  call void @__clang_call_terminate(ptr %1) #12
  unreachable
}

; Function Attrs: mustprogress nounwind uwtable
define internal void @_ZN5eastl13destruct_implIPN12_GLOBAL__N_116ScenarioRefEntryEEEvT_S4_NS_17integral_constantIbLb0EEE(ptr noundef %first, ptr noundef %last) #1 {
entry:
  %first.addr = alloca ptr, align 8
  %last.addr = alloca ptr, align 8
  store ptr %first, ptr %first.addr, align 8
  store ptr %last, ptr %last.addr, align 8
  br label %for.cond

for.cond:                                         ; preds = %for.inc, %entry
  %0 = load ptr, ptr %first.addr, align 8
  %1 = load ptr, ptr %last.addr, align 8
  %cmp = icmp ne ptr %0, %1
  br i1 %cmp, label %for.body, label %for.end

for.body:                                         ; preds = %for.cond
  %2 = load ptr, ptr %first.addr, align 8
  call void @_ZN12_GLOBAL__N_116ScenarioRefEntryD2Ev(ptr noundef nonnull align 8 dereferenceable(32) %2) #13
  br label %for.inc

for.inc:                                          ; preds = %for.body
  %3 = load ptr, ptr %first.addr, align 8
  %incdec.ptr = getelementptr inbounds %"struct.(anonymous namespace)::ScenarioRefEntry", ptr %3, i32 1
  store ptr %incdec.ptr, ptr %first.addr, align 8
  br label %for.cond, !llvm.loop !62

for.end:                                          ; preds = %for.cond
  ret void
}

; Function Attrs: noreturn nounwind uwtable
define linkonce_odr hidden void @__clang_call_terminate(ptr noundef %0) #2 comdat {
  %2 = call ptr @__cxa_begin_catch(ptr %0) #13
  call void @_ZSt9terminatev() #12
  unreachable
}

; Function Attrs: mustprogress nounwind uwtable
define internal void @_ZN5eastl10VectorBaseIN12_GLOBAL__N_116ScenarioRefEntryENS_9allocatorEED2Ev(ptr noundef nonnull align 8 dereferenceable(24) %this) unnamed_addr #1 align 2 personality ptr @__gxx_personality_v0 {
entry:
  %this.addr = alloca ptr, align 8
  store ptr %this, ptr %this.addr, align 8
  %this1 = load ptr, ptr %this.addr, align 8
  %mpBegin = getelementptr inbounds %"struct.eastl::VectorBase.38", ptr %this1, i32 0, i32 0
  %0 = load ptr, ptr %mpBegin, align 8
  %tobool = icmp ne ptr %0, null
  br i1 %tobool, label %if.then, label %if.end

if.then:                                          ; preds = %entry
  %call = call noundef nonnull align 1 dereferenceable(1) ptr @_ZN5eastl10VectorBaseIN12_GLOBAL__N_116ScenarioRefEntryENS_9allocatorEE17internalAllocatorEv(ptr noundef nonnull align 8 dereferenceable(24) %this1) #13
  %mpBegin2 = getelementptr inbounds %"struct.eastl::VectorBase.38", ptr %this1, i32 0, i32 0
  %1 = load ptr, ptr %mpBegin2, align 8
  %call3 = call noundef nonnull align 8 dereferenceable(8) ptr @_ZN5eastl10VectorBaseIN12_GLOBAL__N_116ScenarioRefEntryENS_9allocatorEE19internalCapacityPtrEv(ptr noundef nonnull align 8 dereferenceable(24) %this1) #13
  %2 = load ptr, ptr %call3, align 8
  %mpBegin4 = getelementptr inbounds %"struct.eastl::VectorBase.38", ptr %this1, i32 0, i32 0
  %3 = load ptr, ptr %mpBegin4, align 8
  %sub.ptr.lhs.cast = ptrtoint ptr %2 to i64
  %sub.ptr.rhs.cast = ptrtoint ptr %3 to i64
  %sub.ptr.sub = sub i64 %sub.ptr.lhs.cast, %sub.ptr.rhs.cast
  %sub.ptr.div = sdiv exact i64 %sub.ptr.sub, 32
  %mul = mul i64 %sub.ptr.div, 32
  invoke void @_ZN5eastl9allocator10deallocateEPvm(ptr noundef nonnull align 1 dereferenceable(1) %call, ptr noundef %1, i64 noundef %mul)
          to label %invoke.cont unwind label %terminate.lpad

invoke.cont:                                      ; preds = %if.then
  br label %if.end

if.end:                                           ; preds = %invoke.cont, %entry
  ret void

terminate.lpad:                                   ; preds = %if.then
  %4 = landingpad { ptr, i32 }
          catch ptr null
  %5 = extractvalue { ptr, i32 } %4, 0
  call void @__clang_call_terminate(ptr %5) #12
  unreachable
}

; Function Attrs: mustprogress uwtable
define internal void @_ZN5eastl8destructIPN12_GLOBAL__N_116ScenarioRefEntryEEEvT_S4_(ptr noundef %first, ptr noundef %last) #0 {
entry:
  %first.addr = alloca ptr, align 8
  %last.addr = alloca ptr, align 8
  store ptr %first, ptr %first.addr, align 8
  store ptr %last, ptr %last.addr, align 8
  %0 = load ptr, ptr %first.addr, align 8
  %1 = load ptr, ptr %last.addr, align 8
  call void @_ZN5eastl13destruct_implIPN12_GLOBAL__N_116ScenarioRefEntryEEEvT_S4_NS_17integral_constantIbLb0EEE(ptr noundef %0, ptr noundef %1)
  ret void
}

; Function Attrs: mustprogress nounwind uwtable
define internal void @_ZN5eastl6vectorIN12_GLOBAL__N_116ScenarioRefEntryENS_9allocatorEED2Ev(ptr noundef nonnull align 8 dereferenceable(24) %this) unnamed_addr #1 align 2 personality ptr @__gxx_personality_v0 {
entry:
  %this.addr = alloca ptr, align 8
  store ptr %this, ptr %this.addr, align 8
  %this1 = load ptr, ptr %this.addr, align 8
  %mpBegin = getelementptr inbounds %"struct.eastl::VectorBase.38", ptr %this1, i32 0, i32 0
  %0 = load ptr, ptr %mpBegin, align 8
  %mpEnd = getelementptr inbounds %"struct.eastl::VectorBase.38", ptr %this1, i32 0, i32 1
  %1 = load ptr, ptr %mpEnd, align 8
  invoke void @_ZN5eastl8destructIPN12_GLOBAL__N_116ScenarioRefEntryEEEvT_S4_(ptr noundef %0, ptr noundef %1)
          to label %invoke.cont unwind label %terminate.lpad

invoke.cont:                                      ; preds = %entry
  call void @_ZN5eastl10VectorBaseIN12_GLOBAL__N_116ScenarioRefEntryENS_9allocatorEED2Ev(ptr noundef nonnull align 8 dereferenceable(24) %this1) #13
  ret void

terminate.lpad:                                   ; preds = %entry
  %2 = landingpad { ptr, i32 }
          catch ptr null
  %3 = extractvalue { ptr, i32 } %2, 0
  call void @__clang_call_terminate(ptr %3) #12
  unreachable
}

; Function Attrs: mustprogress nounwind uwtable
define internal void @_ZN12_GLOBAL__N_117AntMetaDataRecordD2Ev(ptr noundef nonnull align 8 dereferenceable(24) %this) unnamed_addr #1 align 2 {
entry:
  %this.addr = alloca ptr, align 8
  store ptr %this, ptr %this.addr, align 8
  %this1 = load ptr, ptr %this.addr, align 8
  %ScenarioRefs = getelementptr inbounds %"struct.(anonymous namespace)::AntMetaDataRecord", ptr %this1, i32 0, i32 0
  call void @_ZN5eastl6vectorIN12_GLOBAL__N_116ScenarioRefEntryENS_9allocatorEED2Ev(ptr noundef nonnull align 8 dereferenceable(24) %ScenarioRefs) #13
  ret void
}