; Function Attrs: mustprogress nounwind uwtable
define internal fastcc void @_ZN12_GLOBAL__N_117AntMetaDataRecordD2Ev(ptr noundef nonnull readonly align 8 captures(none) dereferenceable(24) %this) unnamed_addr #1 align 2 personality ptr @__gxx_personality_v0 {
entry:
  %0 = load ptr, ptr %this, align 8
  %mpEnd.i = getelementptr inbounds nuw i8, ptr %this, i64 8
  %1 = load ptr, ptr %mpEnd.i, align 8
  %cmp.not3.i.i.i = icmp eq ptr %0, %1
  br i1 %cmp.not3.i.i.i, label %invoke.cont.i, label %for.body.i.i.i

for.body.i.i.i:                                   ; preds = %entry, %_ZN12_GLOBAL__N_116ScenarioRefEntryD2Ev.exit.i.i.i
  %first.addr.04.i.i.i = phi ptr [ %incdec.ptr.i.i.i, %_ZN12_GLOBAL__N_116ScenarioRefEntryD2Ev.exit.i.i.i ], [ %0, %entry ]
  %2 = getelementptr i8, ptr %first.addr.04.i.i.i, i64 8
  %first.addr.0.val.i.i.i = load ptr, ptr %2, align 8
  %tobool.not.i.i.i.i.i.i = icmp eq ptr %first.addr.0.val.i.i.i, null
  br i1 %tobool.not.i.i.i.i.i.i, label %_ZN12_GLOBAL__N_116ScenarioRefEntryD2Ev.exit.i.i.i, label %_ZN5eastl9allocator10deallocateEPvm.exit.i.i.i.i.i.i

_ZN5eastl9allocator10deallocateEPvm.exit.i.i.i.i.i.i: ; preds = %for.body.i.i.i
  tail call void @_ZdaPv(ptr noundef nonnull %first.addr.0.val.i.i.i) #18
  br label %_ZN12_GLOBAL__N_116ScenarioRefEntryD2Ev.exit.i.i.i

_ZN12_GLOBAL__N_116ScenarioRefEntryD2Ev.exit.i.i.i: ; preds = %_ZN5eastl9allocator10deallocateEPvm.exit.i.i.i.i.i.i, %for.body.i.i.i
  %incdec.ptr.i.i.i = getelementptr inbounds nuw i8, ptr %first.addr.04.i.i.i, i64 32
  %cmp.not.i.i.i = icmp eq ptr %incdec.ptr.i.i.i, %1
  br i1 %cmp.not.i.i.i, label %invoke.contthread-pre-split.i, label %for.body.i.i.i, !llvm.loop !150

invoke.contthread-pre-split.i:                    ; preds = %_ZN12_GLOBAL__N_116ScenarioRefEntryD2Ev.exit.i.i.i
  %this.val.pr.i = load ptr, ptr %this, align 8
  br label %invoke.cont.i

invoke.cont.i:                                    ; preds = %invoke.contthread-pre-split.i, %entry
  %this.val.i = phi ptr [ %this.val.pr.i, %invoke.contthread-pre-split.i ], [ %0, %entry ]
  %tobool.not.i.i = icmp eq ptr %this.val.i, null
  br i1 %tobool.not.i.i, label %_ZN5eastl6vectorIN12_GLOBAL__N_116ScenarioRefEntryENS_9allocatorEED2Ev.exit, label %_ZN5eastl9allocator10deallocateEPvm.exit.i.i

_ZN5eastl9allocator10deallocateEPvm.exit.i.i:     ; preds = %invoke.cont.i
  tail call void @_ZdaPv(ptr noundef nonnull %this.val.i) #18
  br label %_ZN5eastl6vectorIN12_GLOBAL__N_116ScenarioRefEntryENS_9allocatorEED2Ev.exit

_ZN5eastl6vectorIN12_GLOBAL__N_116ScenarioRefEntryENS_9allocatorEED2Ev.exit: ; preds = %invoke.cont.i, %_ZN5eastl9allocator10deallocateEPvm.exit.i.i
  ret void
}